target datalayout = "e-m:e-p270:32:32-p271:32:32-p272:64:64-i64:64-i128:128-f80:128-n8:16:32:64-S128"
target triple = "x86_64-pc-linux-gnu"

%struct.lstopo_output = type { ptr, i32, i32, i32, ptr, i32, i32, i32, i32, i32, i32, i32, i32, ptr, ptr, i32, i32, i64, i64, i64, i32, [3 x [128 x i8]], i32, i32, ptr, i32, i32, i32, i32, i32, i32, %struct.hwloc_calc_level, i32, i32, i32, i64, [256 x i8], i32, i32, i32, i32, i32, float, [20 x i32], i32, i32, i32, [20 x i32], i32, [20 x i32], i32, [20 x i32], i32, i32, i32, i32, ptr, ptr, i32, [20 x i32], [20 x i32], [20 x i32], ptr, ptr, i64, ptr, i32, i32, i32 }
%struct.hwloc_calc_level = type { i32, i32, %union.hwloc_obj_attr_u, [32 x i8], i32, i32, i32, i32 }
%union.hwloc_obj_attr_u = type { %struct.hwloc_numanode_attr_s, [24 x i8] }
%struct.hwloc_numanode_attr_s = type { i64, i32, ptr }
%struct.lstopo_color = type { i32, i32, i32, i32, %union.lstopo_color_private_u, ptr }
%union.lstopo_color_private_u = type { %struct.lstopo_color_private_ascii_s }
%struct.lstopo_color_private_ascii_s = type { i32 }
%struct.hwloc_obj = type { i32, ptr, i32, ptr, i64, ptr, i32, i32, ptr, ptr, ptr, i32, ptr, ptr, i32, ptr, ptr, ptr, i32, i32, ptr, i32, ptr, i32, ptr, ptr, ptr, ptr, ptr, %struct.hwloc_infos_s, ptr, i64 }
%struct.hwloc_infos_s = type { ptr, i32, i32 }
%struct.lstopo_obj_userdata = type { %struct.hwloc_utils_userdata, i32, i32, %struct.lstopo_style, i32, i32, i32, i32, %struct.lstopo_children_position, %struct.lstopo_children_position, %struct.lstopo_children_position, %struct.lstopo_children_position, i32, i32, i32, [4 x %struct.lstopo_text_line], i32, i32 }
%struct.hwloc_utils_userdata = type { ptr, i64, ptr, ptr }
%struct.lstopo_style = type { ptr, ptr, ptr }
%struct.lstopo_children_position = type { i32, i32, i32, i32, i32, i32, ptr }
%struct.lstopo_text_line = type { [128 x i8], i32, i32 }

@.str.14 = private unnamed_addr constant [1 x i8] zeroinitializer, align 1
@.str.26 = private unnamed_addr constant [6 x i8] c"{}%&#\00", align 1
@.str.27 = private unnamed_addr constant [6 x i8] c"-bold\00", align 1
@.str.28 = private unnamed_addr constant [62 x i8] c"\09\\node [hwloc-label%s,text=hwloc-color-%d-%d-%d] at (%u,%u) {\00", align 1
@.str.29 = private unnamed_addr constant [5 x i8] c"%.*s\00", align 1
@.str.30 = private unnamed_addr constant [4 x i8] c"\\%c\00", align 1
@.str.31 = private unnamed_addr constant [4 x i8] c"};\0A\00", align 1

; Function Attrs: inlinehint nounwind uwtable
define internal i32 @lstopo_obj_cpukind_style(ptr noundef %0, ptr noundef %1) #6 {
  %3 = alloca i32, align 4
  %4 = alloca ptr, align 8
  %5 = alloca ptr, align 8
  %6 = alloca ptr, align 8
  store ptr %0, ptr %4, align 8, !tbaa !4
  store ptr %1, ptr %5, align 8, !tbaa !41
  %7 = load ptr, ptr %4, align 8, !tbaa !4
  %8 = getelementptr inbounds nuw %struct.lstopo_output, ptr %7, i32 0, i32 55
  %9 = load i32, ptr %8, align 8, !tbaa !51
  %10 = icmp ne i32 %9, 0
  br i1 %10, label %11, label %27

11:                                               ; preds = %2
  %12 = load ptr, ptr %5, align 8, !tbaa !41
  %13 = icmp ne ptr %12, null
  br i1 %13, label %14, label %26

14:                                               ; preds = %11
  %15 = load ptr, ptr %5, align 8, !tbaa !41
  %16 = getelementptr inbounds nuw %struct.hwloc_obj, ptr %15, i32 0, i32 30
  %17 = load ptr, ptr %16, align 8, !tbaa !52
  %18 = icmp ne ptr %17, null
  br i1 %18, label %19, label %26

19:                                               ; preds = %14
  call void @llvm.lifetime.start.p0(i64 8, ptr %6) #8
  %20 = load ptr, ptr %5, align 8, !tbaa !41
  %21 = getelementptr inbounds nuw %struct.hwloc_obj, ptr %20, i32 0, i32 30
  %22 = load ptr, ptr %21, align 8, !tbaa !52
  store ptr %22, ptr %6, align 8, !tbaa !58
  %23 = load ptr, ptr %6, align 8, !tbaa !58
  %24 = getelementptr inbounds nuw %struct.lstopo_obj_userdata, ptr %23, i32 0, i32 5
  %25 = load i32, ptr %24, align 4, !tbaa !60
  store i32 %25, ptr %3, align 4
  call void @llvm.lifetime.end.p0(i64 8, ptr %6) #8
  br label %28

26:                                               ; preds = %14, %11
  br label %27

27:                                               ; preds = %26, %2
  store i32 0, ptr %3, align 4
  br label %28

28:                                               ; preds = %27, %19
  %29 = load i32, ptr %3, align 4
  ret i32 %29
}

; Function Attrs: nounwind uwtable
define internal void @tikz_text(ptr noundef %0, ptr noundef %1, i32 noundef %2, i32 noundef %3, i32 noundef %4, i32 noundef %5, ptr noundef %6, ptr noundef %7, i32 noundef %8) #0 {
  %10 = alloca ptr, align 8
  %11 = alloca ptr, align 8
  %12 = alloca i32, align 4
  %13 = alloca i32, align 4
  %14 = alloca i32, align 4
  %15 = alloca i32, align 4
  %16 = alloca ptr, align 8
  %17 = alloca ptr, align 8
  %18 = alloca i32, align 4
  %19 = alloca ptr, align 8
  %20 = alloca i32, align 4
  %21 = alloca i32, align 4
  %22 = alloca i32, align 4
  %23 = alloca i32, align 4
  %24 = alloca ptr, align 8
  %25 = alloca ptr, align 8
  %26 = alloca i64, align 8
  %27 = alloca i64, align 8
  store ptr %0, ptr %10, align 8, !tbaa !4
  store ptr %1, ptr %11, align 8, !tbaa !35
  store i32 %2, ptr %12, align 4, !tbaa !24
  store i32 %3, ptr %13, align 4, !tbaa !24
  store i32 %4, ptr %14, align 4, !tbaa !24
  store i32 %5, ptr %15, align 4, !tbaa !24
  store ptr %6, ptr %16, align 8, !tbaa !9
  store ptr %7, ptr %17, align 8, !tbaa !41
  store i32 %8, ptr %18, align 4, !tbaa !24
  call void @llvm.lifetime.start.p0(i64 8, ptr %19) #8
  %28 = load ptr, ptr %10, align 8, !tbaa !4
  %29 = getelementptr inbounds nuw %struct.lstopo_output, ptr %28, i32 0, i32 4
  %30 = load ptr, ptr %29, align 8, !tbaa !25
  store ptr %30, ptr %19, align 8, !tbaa !23
  call void @llvm.lifetime.start.p0(i64 4, ptr %20) #8
  %31 = load ptr, ptr %11, align 8, !tbaa !35
  %32 = getelementptr inbounds nuw %struct.lstopo_color, ptr %31, i32 0, i32 0
  %33 = load i32, ptr %32, align 8, !tbaa !37
  store i32 %33, ptr %20, align 4, !tbaa !24
  call void @llvm.lifetime.start.p0(i64 4, ptr %21) #8
  %34 = load ptr, ptr %11, align 8, !tbaa !35
  %35 = getelementptr inbounds nuw %struct.lstopo_color, ptr %34, i32 0, i32 1
  %36 = load i32, ptr %35, align 4, !tbaa !39
  store i32 %36, ptr %21, align 4, !tbaa !24
  call void @llvm.lifetime.start.p0(i64 4, ptr %22) #8
  %37 = load ptr, ptr %11, align 8, !tbaa !35
  %38 = getelementptr inbounds nuw %struct.lstopo_color, ptr %37, i32 0, i32 2
  %39 = load i32, ptr %38, align 8, !tbaa !40
  store i32 %39, ptr %22, align 4, !tbaa !24
  call void @llvm.lifetime.start.p0(i64 4, ptr %23) #8
  %40 = load ptr, ptr %10, align 8, !tbaa !4
  %41 = load ptr, ptr %17, align 8, !tbaa !41
  %42 = call i32 @lstopo_obj_cpukind_style(ptr noundef %40, ptr noundef %41)
  store i32 %42, ptr %23, align 4, !tbaa !24
  call void @llvm.lifetime.start.p0(i64 8, ptr %24) #8
  store ptr @.str.14, ptr %24, align 8, !tbaa !9
  call void @llvm.lifetime.start.p0(i64 8, ptr %25) #8
  store ptr @.str.26, ptr %25, align 8, !tbaa !9
  %43 = load i32, ptr %23, align 4, !tbaa !24
  %44 = urem i32 %43, 2
  %45 = icmp ne i32 %44, 0
  br i1 %45, label %46, label %47

46:                                               ; preds = %9
  store ptr @.str.27, ptr %24, align 8, !tbaa !9
  br label %47

47:                                               ; preds = %46, %9
  %48 = load ptr, ptr %19, align 8, !tbaa !23
  %49 = load ptr, ptr %24, align 8, !tbaa !9
  %50 = load i32, ptr %20, align 4, !tbaa !24
  %51 = load i32, ptr %21, align 4, !tbaa !24
  %52 = load i32, ptr %22, align 4, !tbaa !24
  %53 = load i32, ptr %14, align 4, !tbaa !24
  %54 = load i32, ptr %15, align 4, !tbaa !24
  %55 = call i32 (ptr, ptr, ...) @fprintf(ptr noundef %48, ptr noundef @.str.28, ptr noundef %49, i32 noundef %50, i32 noundef %51, i32 noundef %52, i32 noundef %53, i32 noundef %54) #8
  br label %56

56:                                               ; preds = %96, %47
  %57 = load ptr, ptr %16, align 8, !tbaa !9
  %58 = load i8, ptr %57, align 1, !tbaa !34
  %59 = icmp ne i8 %58, 0
  br i1 %59, label %60, label %97

60:                                               ; preds = %56
  call void @llvm.lifetime.start.p0(i64 8, ptr %26) #8
  %61 = load ptr, ptr %16, align 8, !tbaa !9
  %62 = load ptr, ptr %25, align 8, !tbaa !9
  %63 = call i64 @strcspn(ptr noundef %61, ptr noundef %62) #10
  store i64 %63, ptr %26, align 8, !tbaa !45
  call void @llvm.lifetime.start.p0(i64 8, ptr %27) #8
  %64 = load ptr, ptr %19, align 8, !tbaa !23
  %65 = load i64, ptr %26, align 8, !tbaa !45
  %66 = trunc i64 %65 to i32
  %67 = load ptr, ptr %16, align 8, !tbaa !9
  %68 = call i32 (ptr, ptr, ...) @fprintf(ptr noundef %64, ptr noundef @.str.29, i32 noundef %66, ptr noundef %67) #8
  %69 = load i64, ptr %26, align 8, !tbaa !45
  %70 = load ptr, ptr %16, align 8, !tbaa !9
  %71 = getelementptr inbounds nuw i8, ptr %70, i64 %69
  store ptr %71, ptr %16, align 8, !tbaa !9
  %72 = load ptr, ptr %16, align 8, !tbaa !9
  %73 = load ptr, ptr %25, align 8, !tbaa !9
  %74 = call i64 @strspn(ptr noundef %72, ptr noundef %73) #10
  store i64 %74, ptr %27, align 8, !tbaa !45
  br label %75

75:                                               ; preds = %91, %60
  %76 = load ptr, ptr %16, align 8, !tbaa !9
  %77 = load i8, ptr %76, align 1, !tbaa !34
  %78 = sext i8 %77 to i32
  %79 = icmp ne i32 %78, 0
  br i1 %79, label %80, label %83

80:                                               ; preds = %75
  %81 = load i64, ptr %27, align 8, !tbaa !45
  %82 = icmp ne i64 %81, 0
  br label %83

83:                                               ; preds = %80, %75
  %84 = phi i1 [ false, %75 ], [ %82, %80 ]
  br i1 %84, label %85, label %96

85:                                               ; preds = %83
  %86 = load ptr, ptr %19, align 8, !tbaa !23
  %87 = load ptr, ptr %16, align 8, !tbaa !9
  %88 = load i8, ptr %87, align 1, !tbaa !34
  %89 = sext i8 %88 to i32
  %90 = call i32 (ptr, ptr, ...) @fprintf(ptr noundef %86, ptr noundef @.str.30, i32 noundef %89) #8
  br label %91

91:                                               ; preds = %85
  %92 = load ptr, ptr %16, align 8, !tbaa !9
  %93 = getelementptr inbounds nuw i8, ptr %92, i32 1
  store ptr %93, ptr %16, align 8, !tbaa !9
  %94 = load i64, ptr %27, align 8, !tbaa !45
  %95 = add i64 %94, -1
  store i64 %95, ptr %27, align 8, !tbaa !45
  br label %75, !llvm.loop !46

96:                                               ; preds = %83
  call void @llvm.lifetime.end.p0(i64 8, ptr %27) #8
  call void @llvm.lifetime.end.p0(i64 8, ptr %26) #8
  br label %56, !llvm.loop !48

97:                                               ; preds = %56
  %98 = load ptr, ptr %19, align 8, !tbaa !23
  %99 = call i32 (ptr, ptr, ...) @fprintf(ptr noundef %98, ptr noundef @.str.31) #8
  call void @llvm.lifetime.end.p0(i64 8, ptr %25) #8
  call void @llvm.lifetime.end.p0(i64 8, ptr %24) #8
  call void @llvm.lifetime.end.p0(i64 4, ptr %23) #8
  call void @llvm.lifetime.end.p0(i64 4, ptr %22) #8
  call void @llvm.lifetime.end.p0(i64 4, ptr %21) #8
  call void @llvm.lifetime.end.p0(i64 4, ptr %20) #8
  call void @llvm.lifetime.end.p0(i64 8, ptr %19) #8
  ret void
}