; Function Attrs: nofree nounwind uwtable
define internal void @tikz_text(ptr noundef readonly captures(none) %0, ptr noundef readonly captures(none) %1, i32 %2, i32 %3, i32 noundef %4, i32 noundef %5, ptr noundef %6, ptr noundef readonly captures(address_is_null) %7, i32 %8) #8 {
  %10 = getelementptr inbounds nuw i8, ptr %0, i64 24
  %11 = load ptr, ptr %10, align 8, !tbaa !23
  %12 = load i32, ptr %1, align 8, !tbaa !32
  %13 = getelementptr inbounds nuw i8, ptr %1, i64 4
  %14 = load i32, ptr %13, align 4, !tbaa !35
  %15 = getelementptr inbounds nuw i8, ptr %1, i64 8
  %16 = load i32, ptr %15, align 8, !tbaa !36
  %17 = getelementptr i8, ptr %0, i64 1304
  %.val = load i32, ptr %17, align 8, !tbaa !37
  %18 = icmp ne i32 %.val, 0
  %19 = icmp ne ptr %7, null
  %or.cond.i = and i1 %19, %18
  br i1 %or.cond.i, label %20, label %lstopo_obj_cpukind_style.exit

20:                                               ; preds = %9
  %21 = getelementptr inbounds nuw i8, ptr %7, i64 232
  %22 = load ptr, ptr %21, align 8, !tbaa !38
  %.not.i = icmp eq ptr %22, null
  br i1 %.not.i, label %lstopo_obj_cpukind_style.exit, label %23

23:                                               ; preds = %20
  %24 = getelementptr inbounds nuw i8, ptr %22, i64 68
  %25 = load i32, ptr %24, align 4, !tbaa !45
  %26 = and i32 %25, 1
  %27 = icmp eq i32 %26, 0
  %28 = select i1 %27, ptr @.str.14, ptr @.str.27
  br label %lstopo_obj_cpukind_style.exit

lstopo_obj_cpukind_style.exit:                    ; preds = %9, %20, %23
  %.0.i = phi ptr [ %28, %23 ], [ @.str.14, %20 ], [ @.str.14, %9 ]
  %29 = tail call i32 (ptr, ptr, ...) @fprintf(ptr noundef %11, ptr noundef nonnull @.str.28, ptr noundef nonnull %.0.i, i32 noundef %12, i32 noundef %14, i32 noundef %16, i32 noundef %4, i32 noundef %5) #13
  %.pr = load i8, ptr %6, align 1, !tbaa !22
  %.not3337 = icmp eq i8 %.pr, 0
  br i1 %.not3337, label %._crit_edge, label %.lr.ph39

.loopexit:                                        ; preds = %.lr.ph, %.lr.ph39
  %.1.lcssa = phi ptr [ %33, %.lr.ph39 ], [ %42, %.lr.ph ]
  %.lcssa = phi i8 [ %35, %.lr.ph39 ], [ %44, %.lr.ph ]
  %.not33 = icmp eq i8 %.lcssa, 0
  br i1 %.not33, label %._crit_edge, label %.lr.ph39, !llvm.loop !52

.lr.ph39:                                         ; preds = %lstopo_obj_cpukind_style.exit, %.loopexit
  %.03038 = phi ptr [ %.1.lcssa, %.loopexit ], [ %6, %lstopo_obj_cpukind_style.exit ]
  %30 = tail call i64 @strcspn(ptr noundef nonnull %.03038, ptr noundef nonnull @.str.26) #16
  %31 = trunc i64 %30 to i32
  %32 = tail call i32 (ptr, ptr, ...) @fprintf(ptr noundef %11, ptr noundef nonnull @.str.29, i32 noundef %31, ptr noundef nonnull %.03038) #13
  %33 = getelementptr inbounds nuw i8, ptr %.03038, i64 %30
  %34 = tail call i64 @strspn(ptr noundef nonnull %33, ptr noundef nonnull @.str.26) #16
  %35 = load i8, ptr %33, align 1, !tbaa !22
  %36 = icmp ne i8 %35, 0
  %37 = icmp ne i64 %34, 0
  %38 = select i1 %36, i1 %37, i1 false
  br i1 %38, label %.lr.ph, label %.loopexit

.lr.ph:                                           ; preds = %.lr.ph39, %.lr.ph
  %39 = phi i8 [ %44, %.lr.ph ], [ %35, %.lr.ph39 ]
  %.035 = phi i64 [ %43, %.lr.ph ], [ %34, %.lr.ph39 ]
  %.134 = phi ptr [ %42, %.lr.ph ], [ %33, %.lr.ph39 ]
  %40 = sext i8 %39 to i32
  %41 = tail call i32 (ptr, ptr, ...) @fprintf(ptr noundef %11, ptr noundef nonnull @.str.30, i32 noundef %40) #13
  %42 = getelementptr inbounds nuw i8, ptr %.134, i64 1
  %43 = add i64 %.035, -1
  %44 = load i8, ptr %42, align 1, !tbaa !22
  %45 = icmp ne i8 %44, 0
  %46 = icmp ne i64 %43, 0
  %47 = select i1 %45, i1 %46, i1 false
  br i1 %47, label %.lr.ph, label %.loopexit, !llvm.loop !54

._crit_edge:                                      ; preds = %.loopexit, %lstopo_obj_cpukind_style.exit
  %48 = tail call i64 @fwrite(ptr nonnull @.str.31, i64 3, i64 1, ptr %11)
  ret void
}